; Function Attrs: mustprogress uwtable
define void @_ZN9grpc_core8internal50alts_handshaker_client_set_grpc_caller_for_testingEP22alts_handshaker_clientPF15grpc_call_errorP9grpc_callPK7grpc_opmP12grpc_closureE(ptr noundef writeonly %c, ptr noundef %caller) local_unnamed_addr #3 {
entry:
  %cmp = icmp eq ptr %c, null
  %cmp1 = icmp eq ptr %caller, null
  %.not = or i1 %cmp, %cmp1
  br i1 %.not, label %if.then, label %do.end

if.then:                                          ; preds = %entry
  tail call void @gpr_assertion_failed(ptr noundef nonnull @.str, i32 noundef 761, ptr noundef nonnull @.str.16) #17
  unreachable

do.end:                                           ; preds = %entry
  %grpc_caller = getelementptr inbounds i8, ptr %c, i64 32
  store ptr %caller, ptr %grpc_caller, align 8
  ret void
}